target datalayout = "e-m:e-p270:32:32-p271:32:32-p272:64:64-i64:64-i128:128-f80:128-n8:16:32:64-S128"
target triple = "x86_64-pc-linux-gnu"

%struct.select_nodeinfo = type { i16, i16, i64, ptr, double }

@.str.15 = private unnamed_addr constant [31 x i8] c"get_nodeinfo: nodeinfo not set\00", align 1
@.str.16 = private unnamed_addr constant [33 x i8] c"get_nodeinfo: nodeinfo magic bad\00", align 1
@.str.17 = private unnamed_addr constant [40 x i8] c"Unsupported option %d for get_nodeinfo.\00", align 1

; Function Attrs: nounwind uwtable
define dso_local i32 @select_p_select_nodeinfo_get(ptr noundef %0, i32 noundef %1, i32 noundef %2, ptr noundef %3) #0 {
  %5 = alloca i32, align 4
  %6 = alloca ptr, align 8
  %7 = alloca i32, align 4
  %8 = alloca i32, align 4
  %9 = alloca ptr, align 8
  %10 = alloca i32, align 4
  %11 = alloca ptr, align 8
  %12 = alloca ptr, align 8
  %13 = alloca ptr, align 8
  %14 = alloca ptr, align 8
  %15 = alloca ptr, align 8
  %16 = alloca i32, align 4
  store ptr %0, ptr %6, align 8
  store i32 %1, ptr %7, align 4
  store i32 %2, ptr %8, align 4
  store ptr %3, ptr %9, align 8
  call void @llvm.lifetime.start.p0(i64 4, ptr %10) #8
  store i32 0, ptr %10, align 4
  call void @llvm.lifetime.start.p0(i64 8, ptr %11) #8
  %17 = load ptr, ptr %9, align 8
  store ptr %17, ptr %11, align 8
  call void @llvm.lifetime.start.p0(i64 8, ptr %12) #8
  %18 = load ptr, ptr %9, align 8
  store ptr %18, ptr %12, align 8
  call void @llvm.lifetime.start.p0(i64 8, ptr %13) #8
  %19 = load ptr, ptr %9, align 8
  store ptr %19, ptr %13, align 8
  call void @llvm.lifetime.start.p0(i64 8, ptr %14) #8
  %20 = load ptr, ptr %9, align 8
  store ptr %20, ptr %14, align 8
  call void @llvm.lifetime.start.p0(i64 8, ptr %15) #8
  %21 = load ptr, ptr %9, align 8
  store ptr %21, ptr %15, align 8
  %22 = load ptr, ptr %6, align 8
  %23 = icmp eq ptr %22, null
  br i1 %23, label %24, label %26

24:                                               ; preds = %4
  %25 = call i32 (ptr, ...) @slurm_error(ptr noundef @.str.15)
  store i32 -1, ptr %5, align 4
  store i32 1, ptr %16, align 4
  br label %71

26:                                               ; preds = %4
  %27 = load ptr, ptr %6, align 8
  %28 = getelementptr inbounds nuw %struct.select_nodeinfo, ptr %27, i32 0, i32 0
  %29 = load i16, ptr %28, align 8
  %30 = zext i16 %29 to i32
  %31 = icmp ne i32 %30, 33453
  br i1 %31, label %32, label %34

32:                                               ; preds = %26
  %33 = call i32 (ptr, ...) @slurm_error(ptr noundef @.str.16)
  store i32 -1, ptr %5, align 4
  store i32 1, ptr %16, align 4
  br label %71

34:                                               ; preds = %26
  %35 = load i32, ptr %7, align 4
  switch i32 %35, label %66 [
    i32 2, label %36
    i32 5, label %47
    i32 8, label %50
    i32 9, label %55
    i32 10, label %61
  ]

36:                                               ; preds = %34
  %37 = load i32, ptr %8, align 4
  %38 = icmp eq i32 %37, 3
  br i1 %38, label %39, label %44

39:                                               ; preds = %36
  %40 = load ptr, ptr %6, align 8
  %41 = getelementptr inbounds nuw %struct.select_nodeinfo, ptr %40, i32 0, i32 1
  %42 = load i16, ptr %41, align 2
  %43 = load ptr, ptr %11, align 8
  store i16 %42, ptr %43, align 2
  br label %46

44:                                               ; preds = %36
  %45 = load ptr, ptr %11, align 8
  store i16 0, ptr %45, align 2
  br label %46

46:                                               ; preds = %44, %39
  br label %69

47:                                               ; preds = %34
  %48 = load ptr, ptr %6, align 8
  %49 = load ptr, ptr %15, align 8
  store ptr %48, ptr %49, align 8
  br label %69

50:                                               ; preds = %34
  %51 = load ptr, ptr %6, align 8
  %52 = getelementptr inbounds nuw %struct.select_nodeinfo, ptr %51, i32 0, i32 2
  %53 = load i64, ptr %52, align 8
  %54 = load ptr, ptr %12, align 8
  store i64 %53, ptr %54, align 8
  br label %69

55:                                               ; preds = %34
  %56 = load ptr, ptr %6, align 8
  %57 = getelementptr inbounds nuw %struct.select_nodeinfo, ptr %56, i32 0, i32 3
  %58 = load ptr, ptr %57, align 8
  %59 = call ptr @slurm_xstrdup(ptr noundef %58)
  %60 = load ptr, ptr %13, align 8
  store ptr %59, ptr %60, align 8
  br label %69

61:                                               ; preds = %34
  %62 = load ptr, ptr %6, align 8
  %63 = getelementptr inbounds nuw %struct.select_nodeinfo, ptr %62, i32 0, i32 4
  %64 = load double, ptr %63, align 8
  %65 = load ptr, ptr %14, align 8
  store double %64, ptr %65, align 8
  br label %69

66:                                               ; preds = %34
  %67 = load i32, ptr %7, align 4
  %68 = call i32 (ptr, ...) @slurm_error(ptr noundef @.str.17, i32 noundef %67)
  store i32 -1, ptr %10, align 4
  br label %69

69:                                               ; preds = %66, %61, %55, %50, %47, %46
  %70 = load i32, ptr %10, align 4
  store i32 %70, ptr %5, align 4
  store i32 1, ptr %16, align 4
  br label %71

71:                                               ; preds = %69, %32, %24
  call void @llvm.lifetime.end.p0(i64 8, ptr %15) #8
  call void @llvm.lifetime.end.p0(i64 8, ptr %14) #8
  call void @llvm.lifetime.end.p0(i64 8, ptr %13) #8
  call void @llvm.lifetime.end.p0(i64 8, ptr %12) #8
  call void @llvm.lifetime.end.p0(i64 8, ptr %11) #8
  call void @llvm.lifetime.end.p0(i64 4, ptr %10) #8
  %72 = load i32, ptr %5, align 4
  ret i32 %72
}