; Function Attrs: nounwind uwtable
define dso_local range(i32 -1, 1) i32 @select_p_select_nodeinfo_get(ptr noundef %0, i32 noundef %1, i32 noundef %2, ptr noundef writeonly captures(none) %3) local_unnamed_addr #0 {
  %5 = icmp eq ptr %0, null
  br i1 %5, label %6, label %8

6:                                                ; preds = %4
  %7 = tail call i32 (ptr, ...) @slurm_error(ptr noundef nonnull @.str.15) #11
  br label %32

8:                                                ; preds = %4
  %9 = load i16, ptr %0, align 8
  %.not = icmp eq i16 %9, -32083
  br i1 %.not, label %12, label %10

10:                                               ; preds = %8
  %11 = tail call i32 (ptr, ...) @slurm_error(ptr noundef nonnull @.str.16) #11
  br label %32

12:                                               ; preds = %8
  switch i32 %1, label %30 [
    i32 2, label %13
    i32 5, label %19
    i32 8, label %20
    i32 9, label %23
    i32 10, label %27
  ]

13:                                               ; preds = %12
  %14 = icmp eq i32 %2, 3
  br i1 %14, label %15, label %18

15:                                               ; preds = %13
  %16 = getelementptr inbounds nuw i8, ptr %0, i64 2
  %17 = load i16, ptr %16, align 2
  store i16 %17, ptr %3, align 2
  br label %32

18:                                               ; preds = %13
  store i16 0, ptr %3, align 2
  br label %32

19:                                               ; preds = %12
  store ptr %0, ptr %3, align 8
  br label %32

20:                                               ; preds = %12
  %21 = getelementptr inbounds nuw i8, ptr %0, i64 8
  %22 = load i64, ptr %21, align 8
  store i64 %22, ptr %3, align 8
  br label %32

23:                                               ; preds = %12
  %24 = getelementptr inbounds nuw i8, ptr %0, i64 16
  %25 = load ptr, ptr %24, align 8
  %26 = tail call ptr @slurm_xstrdup(ptr noundef %25) #11
  store ptr %26, ptr %3, align 8
  br label %32

27:                                               ; preds = %12
  %28 = getelementptr inbounds nuw i8, ptr %0, i64 24
  %29 = load double, ptr %28, align 8
  store double %29, ptr %3, align 8
  br label %32

30:                                               ; preds = %12
  %31 = tail call i32 (ptr, ...) @slurm_error(ptr noundef nonnull @.str.17, i32 noundef %1) #11
  br label %32

32:                                               ; preds = %19, %20, %23, %27, %30, %18, %15, %10, %6
  %.0 = phi i32 [ -1, %6 ], [ -1, %10 ], [ -1, %30 ], [ 0, %27 ], [ 0, %23 ], [ 0, %20 ], [ 0, %19 ], [ 0, %15 ], [ 0, %18 ]
  ret i32 %.0
}